; Function Attrs: nounwind uwtable
define dso_local i64 @getStringObjectLen(ptr noundef %0) local_unnamed_addr #0 {
  %2 = load i32, ptr %0, align 8
  %3 = and i32 %2, 15
  %4 = icmp eq i32 %3, 0
  br i1 %4, label %6, label %5, !prof !5

5:                                                ; preds = %1
  tail call void @_serverAssertWithInfo(ptr noundef null, ptr noundef nonnull %0, ptr noundef nonnull @.str, ptr noundef nonnull @.str.1, i32 noundef 68) #26
  tail call void @abort() #27
  unreachable

6:                                                ; preds = %1
  %7 = lshr exact i32 %2, 4
  %8 = and i32 %7, 15
  switch i32 %8, label %sdslen.exit [
    i32 0, label %9
    i32 8, label %34
  ]

9:                                                ; preds = %6
  %10 = getelementptr inbounds nuw i8, ptr %0, i64 8
  %11 = load ptr, ptr %10, align 8, !tbaa !6
  %12 = getelementptr inbounds i8, ptr %11, i64 -1
  %13 = load i8, ptr %12, align 1, !tbaa !12
  %14 = zext i8 %13 to i32
  %15 = and i32 %14, 7
  switch i32 %15, label %sdslen.exit [
    i32 0, label %16
    i32 1, label %19
    i32 2, label %23
    i32 3, label %27
    i32 4, label %31
  ]

16:                                               ; preds = %9
  %17 = lshr i32 %14, 3
  %18 = zext nneg i32 %17 to i64
  br label %sdslen.exit

19:                                               ; preds = %9
  %20 = getelementptr inbounds i8, ptr %11, i64 -3
  %21 = load i8, ptr %20, align 1, !tbaa !12
  %22 = zext i8 %21 to i64
  br label %sdslen.exit

23:                                               ; preds = %9
  %24 = getelementptr inbounds i8, ptr %11, i64 -5
  %25 = load i16, ptr %24, align 1, !tbaa !13
  %26 = zext i16 %25 to i64
  br label %sdslen.exit

27:                                               ; preds = %9
  %28 = getelementptr inbounds i8, ptr %11, i64 -9
  %29 = load i32, ptr %28, align 1, !tbaa !15
  %30 = zext i32 %29 to i64
  br label %sdslen.exit

31:                                               ; preds = %9
  %32 = getelementptr inbounds i8, ptr %11, i64 -17
  %33 = load i64, ptr %32, align 1, !tbaa !16
  br label %sdslen.exit

34:                                               ; preds = %6
  %35 = getelementptr inbounds nuw i8, ptr %0, i64 8
  %36 = load ptr, ptr %35, align 8, !tbaa !6
  %37 = getelementptr inbounds i8, ptr %36, i64 -1
  %38 = load i8, ptr %37, align 1, !tbaa !12
  %39 = zext i8 %38 to i32
  %40 = and i32 %39, 7
  switch i32 %40, label %sdslen.exit [
    i32 0, label %41
    i32 1, label %44
    i32 2, label %48
    i32 3, label %52
    i32 4, label %56
  ]

41:                                               ; preds = %34
  %42 = lshr i32 %39, 3
  %43 = zext nneg i32 %42 to i64
  br label %sdslen.exit

44:                                               ; preds = %34
  %45 = getelementptr inbounds i8, ptr %36, i64 -3
  %46 = load i8, ptr %45, align 1, !tbaa !12
  %47 = zext i8 %46 to i64
  br label %sdslen.exit

48:                                               ; preds = %34
  %49 = getelementptr inbounds i8, ptr %36, i64 -5
  %50 = load i16, ptr %49, align 1, !tbaa !13
  %51 = zext i16 %50 to i64
  br label %sdslen.exit

52:                                               ; preds = %34
  %53 = getelementptr inbounds i8, ptr %36, i64 -9
  %54 = load i32, ptr %53, align 1, !tbaa !15
  %55 = zext i32 %54 to i64
  br label %sdslen.exit

56:                                               ; preds = %34
  %57 = getelementptr inbounds i8, ptr %36, i64 -17
  %58 = load i64, ptr %57, align 1, !tbaa !16
  br label %sdslen.exit

sdslen.exit:                                      ; preds = %56, %52, %48, %44, %41, %34, %31, %27, %23, %19, %16, %9, %6
  %.0 = phi i64 [ 0, %6 ], [ %33, %31 ], [ %30, %27 ], [ %26, %23 ], [ %22, %19 ], [ %18, %16 ], [ 0, %9 ], [ %58, %56 ], [ %55, %52 ], [ %51, %48 ], [ %47, %44 ], [ %43, %41 ], [ 0, %34 ]
  ret i64 %.0
}